Certificate:
    Data:
        Version: 3 (0x2)
        Serial Number: 2 (0x2)
    Signature Algorithm: sha256WithRSAEncryption
        Issuer: C=DE, ST=Berlin, L=Berlin, O=snom technology AG, CN=snom technology AG SHA-256 CA/emailAddress=security@snom.com
        Validity
            Not Before: Feb 11 15:19:52 2016 GMT
            Not After : Dec 31 15:19:52 2037 GMT
        Subject: C=DE, ST=Berlin, L=Berlin, O=snom technology AG, CN=Snom Phone 1 SHA-256/emailAddress=security@snom.com
        Subject Public Key Info:
            Public Key Algorithm: rsaEncryption
                Public-Key: (2048 bit)
                Modulus:
                    00:c3:b7:12:9f:88:88:8e:dc:7a:c8:c0:05:43:81:
                    46:4a:ae:1b:b0:16:e8:72:df:8c:da:ce:ab:2f:47:
                    c9:f0:72:38:00:6e:cf:1f:fd:07:e2:ac:c9:e5:ff:
                    27:b2:f5:2e:1f:c5:08:4b:5e:51:83:d4:7b:0c:69:
                    d9:cd:02:c0:d1:91:43:a9:2d:70:4f:cd:ee:a6:b1:
                    e6:4b:32:30:58:6a:b7:73:b6:08:84:01:51:2c:a8:
                    73:de:25:db:e6:c5:8f:73:5b:a1:e5:da:96:da:7c:
                    34:2b:b0:cd:17:56:9c:3e:97:79:11:53:e0:f2:d5:
                    d5:5b:f5:75:cf:34:05:9c:8e:ab:26:6b:fe:8d:b9:
                    59:cb:d4:53:c9:74:74:be:ab:83:bc:c6:b2:40:34:
                    78:67:c9:2c:4b:2f:b5:90:6c:70:12:9a:bc:4f:e7:
                    6e:08:eb:3b:5b:14:96:6f:b2:a0:4b:19:97:c3:2e:
                    c3:25:f9:6d:fc:16:1b:24:82:9b:79:ca:31:1a:79:
                    2a:e2:cf:be:e0:b0:6e:85:dc:2c:eb:b4:f1:e2:c7:
                    71:16:01:93:f3:a4:6a:3c:14:6a:4b:d9:10:6a:3b:
                    6c:89:41:0c:bf:4a:c0:b6:7b:af:20:c4:5f:65:1b:
                    0c:6b:d7:08:7a:b9:4e:64:82:45:c2:71:06:7e:3f:
                    82:15
                Exponent: 65537 (0x10001)
        X509v3 extensions:
            X509v3 Subject Key Identifier: 
                E8:72:82:41:B3:B7:60:BF:9E:0E:88:94:1F:48:38:54:03:C8:CA:80
            X509v3 Authority Key Identifier: 
                keyid:5A:87:A1:4C:B3:7E:EF:58:50:A6:F6:C8:39:7F:9B:19:0D:57:81:EA
                DirName:/C=DE/ST=Berlin/L=Berlin/O=snom technology AG/CN=snom technology AG SHA-256 CA/emailAddress=security@snom.com
                serial:EE:E9:86:A8:33:AB:43:C7

            X509v3 Basic Constraints: 
                CA:TRUE
    Signature Algorithm: sha256WithRSAEncryption
         02:75:d1:57:2c:ae:ba:bf:cc:fc:d0:4b:e2:db:97:ab:82:5e:
         dc:bb:cf:67:ed:35:1a:56:c8:5b:ea:8d:6b:54:b2:6d:b3:ff:
         38:83:1f:46:0e:96:d2:dc:60:d7:18:0f:9d:23:73:d7:e3:9d:
         95:5f:d4:0f:2c:b4:b3:b1:20:dd:44:e7:66:7c:e4:22:70:c4:
         42:b5:d5:12:0e:36:77:7f:e7:6c:a7:08:b2:6b:ea:86:12:43:
         a0:2b:36:bd:d2:9a:eb:41:62:f4:2a:ee:31:d6:90:76:fa:d5:
         53:63:77:c1:c3:98:64:83:fb:fc:8c:2a:c1:ae:fa:f7:21:6e:
         26:fc:2c:17:01:f6:04:00:c2:6b:b0:4d:8c:17:7f:bb:98:03:
         30:ed:84:fe:0d:d1:92:26:0e:25:99:49:3a:98:6b:7c:2d:fb:
         52:5f:60:e1:45:f2:4a:32:60:4b:d1:90:f9:ca:8e:af:bf:7f:
         f7:d5:49:e7:71:02:6f:17:d8:fc:79:86:e4:60:e9:3d:84:07:
         37:1a:20:85:db:c5:ea:80:9b:6b:a4:a2:51:22:02:51:45:c5:
         a6:d3:7a:a1:5b:39:ef:63:6a:f1:c9:e9:45:bd:da:57:b0:53:
         c4:9f:0e:b2:42:8c:aa:56:c8:b4:59:47:b5:f7:7f:76:80:d9:
         37:2f:bf:02
-----BEGIN CERTIFICATE-----
MIIEnzCCA4egAwIBAgIBAjANBgkqhkiG9w0BAQsFADCBljELMAkGA1UEBhMCREUx
DzANBgNVBAgTBkJlcmxpbjEPMA0GA1UEBxMGQmVybGluMRswGQYDVQQKExJzbm9t
IHRlY2hub2xvZ3kgQUcxJjAkBgNVBAMTHXNub20gdGVjaG5vbG9neSBBRyBTSEEt
MjU2IENBMSAwHgYJKoZIhvcNAQkBFhFzZWN1cml0eUBzbm9tLmNvbTAeFw0xNjAy
MTExNTE5NTJaFw0zNzEyMzExNTE5NTJaMIGNMQswCQYDVQQGEwJERTEPMA0GA1UE
CBMGQmVybGluMQ8wDQYDVQQHEwZCZXJsaW4xGzAZBgNVBAoTEnNub20gdGVjaG5v
bG9neSBBRzEdMBsGA1UEAxMUU25vbSBQaG9uZSAxIFNIQS0yNTYxIDAeBgkqhkiG
9w0BCQEWEXNlY3VyaXR5QHNub20uY29tMIIBIjANBgkqhkiG9w0BAQEFAAOCAQ8A
MIIBCgKCAQEAw7cSn4iIjtx6yMAFQ4FGSq4bsBboct+M2s6rL0fJ8HI4AG7PH/0H
4qzJ5f8nsvUuH8UIS15Rg9R7DGnZzQLA0ZFDqS1wT83uprHmSzIwWGq3c7YIhAFR
LKhz3iXb5sWPc1uh5dqW2nw0K7DNF1acPpd5EVPg8tXVW/V1zzQFnI6rJmv+jblZ
y9RTyXR0vquDvMayQDR4Z8ksSy+1kGxwEpq8T+duCOs7WxSWb7KgSxmXwy7DJflt
/BYbJIKbecoxGnkq4s++4LBuhdws67Tx4sdxFgGT86RqPBRqS9kQajtsiUEMv0rA
tnuvIMRfZRsMa9cIerlOZIJFwnEGfj+CFQIDAQABo4H+MIH7MB0GA1UdDgQWBBTo
coJBs7dgv54OiJQfSDhUA8jKgDCBywYDVR0jBIHDMIHAgBRah6FMs37vWFCm9sg5
f5sZDVeB6qGBnKSBmTCBljELMAkGA1UEBhMCREUxDzANBgNVBAgTBkJlcmxpbjEP
MA0GA1UEBxMGQmVybGluMRswGQYDVQQKExJzbm9tIHRlY2hub2xvZ3kgQUcxJjAk
BgNVBAMTHXNub20gdGVjaG5vbG9neSBBRyBTSEEtMjU2IENBMSAwHgYJKoZIhvcN
AQkBFhFzZWN1cml0eUBzbm9tLmNvbYIJAO7phqgzq0PHMAwGA1UdEwQFMAMBAf8w
DQYJKoZIhvcNAQELBQADggEBAAJ10Vcsrrq/zPzQS+Lbl6uCXty7z2ftNRpWyFvq
jWtUsm2z/ziDH0YOltLcYNcYD50jc9fjnZVf1A8stLOxIN1E52Z85CJwxEK11RIO
Nnd/52ynCLJr6oYSQ6ArNr3SmutBYvQq7jHWkHb61VNjd8HDmGSD+/yMKsGu+vch
bib8LBcB9gQAwmuwTYwXf7uYAzDthP4N0ZImDiWZSTqYa3wt+1JfYOFF8koyYEvR
kPnKjq+/f/fVSedxAm8X2Px5huRg6T2EBzcaIIXbxeqAm2ukolEiAlFFxabTeqFb
Oe9javHJ6UW92lewU8SfDrJCjKpWyLRZR7X3f3aA2TcvvwI=
-----END CERTIFICATE-----
